target datalayout = "e-m:e-p270:32:32-p271:32:32-p272:64:64-i64:64-i128:128-f80:128-n8:16:32:64-S128"
target triple = "x86_64-pc-linux-gnu"

%struct.PHP_MD4_CTX = type { [4 x i32], [2 x i32], [64 x i8] }

@PADDING = internal constant <{ i8, [63 x i8] }> <{ i8 -128, [63 x i8] zeroinitializer }>, align 16

; Function Attrs: nounwind uwtable
define dso_local void @PHP_MD4Update(ptr noundef %0, ptr noundef %1, i64 noundef %2) #1 {
  %4 = alloca ptr, align 8
  %5 = alloca ptr, align 8
  %6 = alloca i64, align 8
  %7 = alloca i32, align 4
  %8 = alloca i32, align 4
  %9 = alloca i64, align 8
  store ptr %0, ptr %4, align 8, !tbaa !4
  store ptr %1, ptr %5, align 8, !tbaa !12
  store i64 %2, ptr %6, align 8, !tbaa !14
  call void @llvm.lifetime.start.p0(i64 4, ptr %7) #6
  call void @llvm.lifetime.start.p0(i64 4, ptr %8) #6
  call void @llvm.lifetime.start.p0(i64 8, ptr %9) #6
  %10 = load ptr, ptr %4, align 8, !tbaa !4
  %11 = getelementptr inbounds nuw %struct.PHP_MD4_CTX, ptr %10, i32 0, i32 1
  %12 = getelementptr inbounds [2 x i32], ptr %11, i64 0, i64 0
  %13 = load i32, ptr %12, align 4, !tbaa !10
  %14 = lshr i32 %13, 3
  %15 = and i32 %14, 63
  store i32 %15, ptr %7, align 4, !tbaa !10
  %16 = load i64, ptr %6, align 8, !tbaa !14
  %17 = trunc i64 %16 to i32
  %18 = shl i32 %17, 3
  %19 = load ptr, ptr %4, align 8, !tbaa !4
  %20 = getelementptr inbounds nuw %struct.PHP_MD4_CTX, ptr %19, i32 0, i32 1
  %21 = getelementptr inbounds [2 x i32], ptr %20, i64 0, i64 0
  %22 = load i32, ptr %21, align 4, !tbaa !10
  %23 = add i32 %22, %18
  store i32 %23, ptr %21, align 4, !tbaa !10
  %24 = load i64, ptr %6, align 8, !tbaa !14
  %25 = trunc i64 %24 to i32
  %26 = shl i32 %25, 3
  %27 = icmp ult i32 %23, %26
  br i1 %27, label %28, label %34

28:                                               ; preds = %3
  %29 = load ptr, ptr %4, align 8, !tbaa !4
  %30 = getelementptr inbounds nuw %struct.PHP_MD4_CTX, ptr %29, i32 0, i32 1
  %31 = getelementptr inbounds [2 x i32], ptr %30, i64 0, i64 1
  %32 = load i32, ptr %31, align 4, !tbaa !10
  %33 = add i32 %32, 1
  store i32 %33, ptr %31, align 4, !tbaa !10
  br label %34

34:                                               ; preds = %28, %3
  %35 = load i64, ptr %6, align 8, !tbaa !14
  %36 = lshr i64 %35, 29
  %37 = trunc i64 %36 to i32
  %38 = load ptr, ptr %4, align 8, !tbaa !4
  %39 = getelementptr inbounds nuw %struct.PHP_MD4_CTX, ptr %38, i32 0, i32 1
  %40 = getelementptr inbounds [2 x i32], ptr %39, i64 0, i64 1
  %41 = load i32, ptr %40, align 4, !tbaa !10
  %42 = add i32 %41, %37
  store i32 %42, ptr %40, align 4, !tbaa !10
  %43 = load i32, ptr %7, align 4, !tbaa !10
  %44 = sub i32 64, %43
  store i32 %44, ptr %8, align 4, !tbaa !10
  %45 = load i64, ptr %6, align 8, !tbaa !14
  %46 = load i32, ptr %8, align 4, !tbaa !10
  %47 = zext i32 %46 to i64
  %48 = icmp uge i64 %45, %47
  br i1 %48, label %49, label %82

49:                                               ; preds = %34
  %50 = load ptr, ptr %4, align 8, !tbaa !4
  %51 = getelementptr inbounds nuw %struct.PHP_MD4_CTX, ptr %50, i32 0, i32 2
  %52 = load i32, ptr %7, align 4, !tbaa !10
  %53 = zext i32 %52 to i64
  %54 = getelementptr inbounds nuw [64 x i8], ptr %51, i64 0, i64 %53
  %55 = load ptr, ptr %5, align 8, !tbaa !12
  %56 = load i32, ptr %8, align 4, !tbaa !10
  %57 = zext i32 %56 to i64
  call void @llvm.memcpy.p0.p0.i64(ptr align 1 %54, ptr align 1 %55, i64 %57, i1 false)
  %58 = load ptr, ptr %4, align 8, !tbaa !4
  %59 = getelementptr inbounds nuw %struct.PHP_MD4_CTX, ptr %58, i32 0, i32 0
  %60 = getelementptr inbounds [4 x i32], ptr %59, i64 0, i64 0
  %61 = load ptr, ptr %4, align 8, !tbaa !4
  %62 = getelementptr inbounds nuw %struct.PHP_MD4_CTX, ptr %61, i32 0, i32 2
  %63 = getelementptr inbounds [64 x i8], ptr %62, i64 0, i64 0
  call void @MD4Transform(ptr noundef %60, ptr noundef %63)
  %64 = load i32, ptr %8, align 4, !tbaa !10
  %65 = zext i32 %64 to i64
  store i64 %65, ptr %9, align 8, !tbaa !14
  br label %66

66:                                               ; preds = %78, %49
  %67 = load i64, ptr %9, align 8, !tbaa !14
  %68 = add i64 %67, 63
  %69 = load i64, ptr %6, align 8, !tbaa !14
  %70 = icmp ult i64 %68, %69
  br i1 %70, label %71, label %81

71:                                               ; preds = %66
  %72 = load ptr, ptr %4, align 8, !tbaa !4
  %73 = getelementptr inbounds nuw %struct.PHP_MD4_CTX, ptr %72, i32 0, i32 0
  %74 = getelementptr inbounds [4 x i32], ptr %73, i64 0, i64 0
  %75 = load ptr, ptr %5, align 8, !tbaa !12
  %76 = load i64, ptr %9, align 8, !tbaa !14
  %77 = getelementptr inbounds nuw i8, ptr %75, i64 %76
  call void @MD4Transform(ptr noundef %74, ptr noundef %77)
  br label %78

78:                                               ; preds = %71
  %79 = load i64, ptr %9, align 8, !tbaa !14
  %80 = add i64 %79, 64
  store i64 %80, ptr %9, align 8, !tbaa !14
  br label %66

81:                                               ; preds = %66
  store i32 0, ptr %7, align 4, !tbaa !10
  br label %83

82:                                               ; preds = %34
  store i64 0, ptr %9, align 8, !tbaa !14
  br label %83

83:                                               ; preds = %82, %81
  %84 = load ptr, ptr %4, align 8, !tbaa !4
  %85 = getelementptr inbounds nuw %struct.PHP_MD4_CTX, ptr %84, i32 0, i32 2
  %86 = load i32, ptr %7, align 4, !tbaa !10
  %87 = zext i32 %86 to i64
  %88 = getelementptr inbounds nuw [64 x i8], ptr %85, i64 0, i64 %87
  %89 = load ptr, ptr %5, align 8, !tbaa !12
  %90 = load i64, ptr %9, align 8, !tbaa !14
  %91 = getelementptr inbounds nuw i8, ptr %89, i64 %90
  %92 = load i64, ptr %6, align 8, !tbaa !14
  %93 = load i64, ptr %9, align 8, !tbaa !14
  %94 = sub i64 %92, %93
  call void @llvm.memcpy.p0.p0.i64(ptr align 1 %88, ptr align 1 %91, i64 %94, i1 false)
  call void @llvm.lifetime.end.p0(i64 8, ptr %9) #6
  call void @llvm.lifetime.end.p0(i64 4, ptr %8) #6
  call void @llvm.lifetime.end.p0(i64 4, ptr %7) #6
  ret void
}

; Function Attrs: nounwind uwtable
define internal void @Encode(ptr noundef %0, ptr noundef %1, i32 noundef %2) #1 {
  %4 = alloca ptr, align 8
  %5 = alloca ptr, align 8
  %6 = alloca i32, align 4
  %7 = alloca i32, align 4
  %8 = alloca i32, align 4
  store ptr %0, ptr %4, align 8, !tbaa !12
  store ptr %1, ptr %5, align 8, !tbaa !29
  store i32 %2, ptr %6, align 4, !tbaa !10
  call void @llvm.lifetime.start.p0(i64 4, ptr %7) #6
  call void @llvm.lifetime.start.p0(i64 4, ptr %8) #6
  store i32 0, ptr %7, align 4, !tbaa !10
  store i32 0, ptr %8, align 4, !tbaa !10
  br label %9

9:                                                ; preds = %64, %3
  %10 = load i32, ptr %8, align 4, !tbaa !10
  %11 = load i32, ptr %6, align 4, !tbaa !10
  %12 = icmp ult i32 %10, %11
  br i1 %12, label %13, label %69

13:                                               ; preds = %9
  %14 = load ptr, ptr %5, align 8, !tbaa !29
  %15 = load i32, ptr %7, align 4, !tbaa !10
  %16 = zext i32 %15 to i64
  %17 = getelementptr inbounds nuw i32, ptr %14, i64 %16
  %18 = load i32, ptr %17, align 4, !tbaa !10
  %19 = and i32 %18, 255
  %20 = trunc i32 %19 to i8
  %21 = load ptr, ptr %4, align 8, !tbaa !12
  %22 = load i32, ptr %8, align 4, !tbaa !10
  %23 = zext i32 %22 to i64
  %24 = getelementptr inbounds nuw i8, ptr %21, i64 %23
  store i8 %20, ptr %24, align 1, !tbaa !31
  %25 = load ptr, ptr %5, align 8, !tbaa !29
  %26 = load i32, ptr %7, align 4, !tbaa !10
  %27 = zext i32 %26 to i64
  %28 = getelementptr inbounds nuw i32, ptr %25, i64 %27
  %29 = load i32, ptr %28, align 4, !tbaa !10
  %30 = lshr i32 %29, 8
  %31 = and i32 %30, 255
  %32 = trunc i32 %31 to i8
  %33 = load ptr, ptr %4, align 8, !tbaa !12
  %34 = load i32, ptr %8, align 4, !tbaa !10
  %35 = add i32 %34, 1
  %36 = zext i32 %35 to i64
  %37 = getelementptr inbounds nuw i8, ptr %33, i64 %36
  store i8 %32, ptr %37, align 1, !tbaa !31
  %38 = load ptr, ptr %5, align 8, !tbaa !29
  %39 = load i32, ptr %7, align 4, !tbaa !10
  %40 = zext i32 %39 to i64
  %41 = getelementptr inbounds nuw i32, ptr %38, i64 %40
  %42 = load i32, ptr %41, align 4, !tbaa !10
  %43 = lshr i32 %42, 16
  %44 = and i32 %43, 255
  %45 = trunc i32 %44 to i8
  %46 = load ptr, ptr %4, align 8, !tbaa !12
  %47 = load i32, ptr %8, align 4, !tbaa !10
  %48 = add i32 %47, 2
  %49 = zext i32 %48 to i64
  %50 = getelementptr inbounds nuw i8, ptr %46, i64 %49
  store i8 %45, ptr %50, align 1, !tbaa !31
  %51 = load ptr, ptr %5, align 8, !tbaa !29
  %52 = load i32, ptr %7, align 4, !tbaa !10
  %53 = zext i32 %52 to i64
  %54 = getelementptr inbounds nuw i32, ptr %51, i64 %53
  %55 = load i32, ptr %54, align 4, !tbaa !10
  %56 = lshr i32 %55, 24
  %57 = and i32 %56, 255
  %58 = trunc i32 %57 to i8
  %59 = load ptr, ptr %4, align 8, !tbaa !12
  %60 = load i32, ptr %8, align 4, !tbaa !10
  %61 = add i32 %60, 3
  %62 = zext i32 %61 to i64
  %63 = getelementptr inbounds nuw i8, ptr %59, i64 %62
  store i8 %58, ptr %63, align 1, !tbaa !31
  br label %64

64:                                               ; preds = %13
  %65 = load i32, ptr %7, align 4, !tbaa !10
  %66 = add i32 %65, 1
  store i32 %66, ptr %7, align 4, !tbaa !10
  %67 = load i32, ptr %8, align 4, !tbaa !10
  %68 = add i32 %67, 4
  store i32 %68, ptr %8, align 4, !tbaa !10
  br label %9

69:                                               ; preds = %9
  call void @llvm.lifetime.end.p0(i64 4, ptr %8) #6
  call void @llvm.lifetime.end.p0(i64 4, ptr %7) #6
  ret void
}

; Function Attrs: nounwind uwtable
define dso_local void @PHP_MD4Final(ptr noundef %0, ptr noundef %1) #1 {
  %3 = alloca ptr, align 8
  %4 = alloca ptr, align 8
  %5 = alloca [8 x i8], align 1
  %6 = alloca i32, align 4
  %7 = alloca i32, align 4
  store ptr %0, ptr %3, align 8, !tbaa !12
  store ptr %1, ptr %4, align 8, !tbaa !4
  call void @llvm.lifetime.start.p0(i64 8, ptr %5) #6
  call void @llvm.lifetime.start.p0(i64 4, ptr %6) #6
  call void @llvm.lifetime.start.p0(i64 4, ptr %7) #6
  %8 = getelementptr inbounds [8 x i8], ptr %5, i64 0, i64 0
  %9 = load ptr, ptr %4, align 8, !tbaa !4
  %10 = getelementptr inbounds nuw %struct.PHP_MD4_CTX, ptr %9, i32 0, i32 1
  %11 = getelementptr inbounds [2 x i32], ptr %10, i64 0, i64 0
  call void @Encode(ptr noundef %8, ptr noundef %11, i32 noundef 8)
  %12 = load ptr, ptr %4, align 8, !tbaa !4
  %13 = getelementptr inbounds nuw %struct.PHP_MD4_CTX, ptr %12, i32 0, i32 1
  %14 = getelementptr inbounds [2 x i32], ptr %13, i64 0, i64 0
  %15 = load i32, ptr %14, align 4, !tbaa !10
  %16 = lshr i32 %15, 3
  %17 = and i32 %16, 63
  store i32 %17, ptr %6, align 4, !tbaa !10
  %18 = load i32, ptr %6, align 4, !tbaa !10
  %19 = icmp ult i32 %18, 56
  br i1 %19, label %20, label %23

20:                                               ; preds = %2
  %21 = load i32, ptr %6, align 4, !tbaa !10
  %22 = sub i32 56, %21
  br label %26

23:                                               ; preds = %2
  %24 = load i32, ptr %6, align 4, !tbaa !10
  %25 = sub i32 120, %24
  br label %26

26:                                               ; preds = %23, %20
  %27 = phi i32 [ %22, %20 ], [ %25, %23 ]
  store i32 %27, ptr %7, align 4, !tbaa !10
  %28 = load ptr, ptr %4, align 8, !tbaa !4
  %29 = load i32, ptr %7, align 4, !tbaa !10
  %30 = zext i32 %29 to i64
  call void @PHP_MD4Update(ptr noundef %28, ptr noundef @PADDING, i64 noundef %30)
  %31 = load ptr, ptr %4, align 8, !tbaa !4
  %32 = getelementptr inbounds [8 x i8], ptr %5, i64 0, i64 0
  call void @PHP_MD4Update(ptr noundef %31, ptr noundef %32, i64 noundef 8)
  %33 = load ptr, ptr %3, align 8, !tbaa !12
  %34 = load ptr, ptr %4, align 8, !tbaa !4
  %35 = getelementptr inbounds nuw %struct.PHP_MD4_CTX, ptr %34, i32 0, i32 0
  %36 = getelementptr inbounds [4 x i32], ptr %35, i64 0, i64 0
  call void @Encode(ptr noundef %33, ptr noundef %36, i32 noundef 16)
  %37 = load ptr, ptr %4, align 8, !tbaa !4
  call void @explicit_bzero(ptr noundef %37, i64 noundef 88) #6
  call void @llvm.lifetime.end.p0(i64 4, ptr %7) #6
  call void @llvm.lifetime.end.p0(i64 4, ptr %6) #6
  call void @llvm.lifetime.end.p0(i64 8, ptr %5) #6
  ret void
}